target datalayout = "e-m:e-p270:32:32-p271:32:32-p272:64:64-i64:64-i128:128-f80:128-n8:16:32:64-S128"
target triple = "x86_64-unknown-linux-gnu"

%"class.std::unique_ptr" = type { %"struct.std::__uniq_ptr_data" }
%"struct.std::__uniq_ptr_data" = type { %"class.std::__uniq_ptr_impl" }
%"class.std::__uniq_ptr_impl" = type { %"class.std::tuple" }
%"class.std::tuple" = type { %"struct.std::_Tuple_impl" }
%"struct.std::_Tuple_impl" = type { %"struct.std::_Head_base.1" }
%"struct.std::_Head_base.1" = type { ptr }
%"struct.llvh::AlignedCharArrayUnion.2" = type { %"struct.llvh::AlignedCharArray.3" }
%"struct.llvh::AlignedCharArray.3" = type { [16 x i8] }
%"class.std::error_code" = type { i32, ptr }
%"class.llvh::ErrorOr.12" = type { %union.anon.13, i8, [7 x i8] }
%union.anon.13 = type { %"struct.llvh::AlignedCharArrayUnion.2" }
%"struct.llvh::AlignedCharArray" = type { [8 x i8] }

; Function Attrs: mustprogress nounwind uwtable
define linkonce_odr hidden noundef nonnull align 1 dereferenceable(1) ptr @_ZNSt10_Head_baseILm1ESt14default_deleteIN4llvh12MemoryBufferEELb1EE7_M_headERS4_(ptr noundef nonnull align 1 dereferenceable(1) %__b) #0 comdat align 2 {
entry:
  %__b.addr = alloca ptr, align 8
  store ptr %__b, ptr %__b.addr, align 8
  %0 = load ptr, ptr %__b.addr, align 8
  ret ptr %0
}

; Function Attrs: mustprogress nounwind uwtable
define linkonce_odr hidden noundef nonnull align 1 dereferenceable(1) ptr @_ZNSt11_Tuple_implILm1EJSt14default_deleteIN4llvh12MemoryBufferEEEE7_M_headERS4_(ptr noundef nonnull align 1 dereferenceable(1) %__t) #0 comdat align 2 {
entry:
  %__t.addr = alloca ptr, align 8
  store ptr %__t, ptr %__t.addr, align 8
  %0 = load ptr, ptr %__t.addr, align 8
  %call = call noundef nonnull align 1 dereferenceable(1) ptr @_ZNSt10_Head_baseILm1ESt14default_deleteIN4llvh12MemoryBufferEELb1EE7_M_headERS4_(ptr noundef nonnull align 1 dereferenceable(1) %0) #11
  ret ptr %call
}

; Function Attrs: mustprogress nounwind uwtable
define linkonce_odr hidden noundef nonnull align 8 dereferenceable(8) ptr @_ZNSt10_Head_baseILm0EPN4llvh12MemoryBufferELb0EE7_M_headERS3_(ptr noundef nonnull align 8 dereferenceable(8) %__b) #0 comdat align 2 {
entry:
  %__b.addr = alloca ptr, align 8
  store ptr %__b, ptr %__b.addr, align 8
  %0 = load ptr, ptr %__b.addr, align 8
  %_M_head_impl = getelementptr inbounds %"struct.std::_Head_base.1", ptr %0, i32 0, i32 0
  ret ptr %_M_head_impl
}

; Function Attrs: mustprogress nounwind uwtable
define linkonce_odr hidden noundef nonnull align 1 dereferenceable(1) ptr @_ZSt12__get_helperILm1ESt14default_deleteIN4llvh12MemoryBufferEEJEERT0_RSt11_Tuple_implIXT_EJS4_DpT1_EE(ptr noundef nonnull align 1 dereferenceable(1) %__t) #0 comdat {
entry:
  %__t.addr = alloca ptr, align 8
  store ptr %__t, ptr %__t.addr, align 8
  %0 = load ptr, ptr %__t.addr, align 8
  %call = call noundef nonnull align 1 dereferenceable(1) ptr @_ZNSt11_Tuple_implILm1EJSt14default_deleteIN4llvh12MemoryBufferEEEE7_M_headERS4_(ptr noundef nonnull align 1 dereferenceable(1) %0) #11
  ret ptr %call
}

; Function Attrs: mustprogress nounwind uwtable
define linkonce_odr hidden noundef nonnull align 8 dereferenceable(8) ptr @_ZNSt11_Tuple_implILm0EJPN4llvh12MemoryBufferESt14default_deleteIS1_EEE7_M_headERS5_(ptr noundef nonnull align 8 dereferenceable(8) %__t) #0 comdat align 2 {
entry:
  %__t.addr = alloca ptr, align 8
  store ptr %__t, ptr %__t.addr, align 8
  %0 = load ptr, ptr %__t.addr, align 8
  %call = call noundef nonnull align 8 dereferenceable(8) ptr @_ZNSt10_Head_baseILm0EPN4llvh12MemoryBufferELb0EE7_M_headERS3_(ptr noundef nonnull align 8 dereferenceable(8) %0) #11
  ret ptr %call
}

; Function Attrs: mustprogress nounwind uwtable
define linkonce_odr hidden noundef nonnull align 1 dereferenceable(1) ptr @_ZSt3getILm1EJPN4llvh12MemoryBufferESt14default_deleteIS1_EEERNSt13tuple_elementIXT_ESt5tupleIJDpT0_EEE4typeERS9_(ptr noundef nonnull align 8 dereferenceable(8) %__t) #0 comdat {
entry:
  %__t.addr = alloca ptr, align 8
  store ptr %__t, ptr %__t.addr, align 8
  %0 = load ptr, ptr %__t.addr, align 8
  %call = call noundef nonnull align 1 dereferenceable(1) ptr @_ZSt12__get_helperILm1ESt14default_deleteIN4llvh12MemoryBufferEEJEERT0_RSt11_Tuple_implIXT_EJS4_DpT1_EE(ptr noundef nonnull align 1 dereferenceable(1) %0) #11
  ret ptr %call
}

; Function Attrs: mustprogress nounwind uwtable
define linkonce_odr hidden noundef nonnull align 8 dereferenceable(8) ptr @_ZSt12__get_helperILm0EPN4llvh12MemoryBufferEJSt14default_deleteIS1_EEERT0_RSt11_Tuple_implIXT_EJS5_DpT1_EE(ptr noundef nonnull align 8 dereferenceable(8) %__t) #0 comdat {
entry:
  %__t.addr = alloca ptr, align 8
  store ptr %__t, ptr %__t.addr, align 8
  %0 = load ptr, ptr %__t.addr, align 8
  %call = call noundef nonnull align 8 dereferenceable(8) ptr @_ZNSt11_Tuple_implILm0EJPN4llvh12MemoryBufferESt14default_deleteIS1_EEE7_M_headERS5_(ptr noundef nonnull align 8 dereferenceable(8) %0) #11
  ret ptr %call
}

; Function Attrs: mustprogress nounwind uwtable
define linkonce_odr hidden noundef nonnull align 1 dereferenceable(1) ptr @_ZNSt15__uniq_ptr_implIN4llvh12MemoryBufferESt14default_deleteIS1_EE10_M_deleterEv(ptr noundef nonnull align 8 dereferenceable(8) %this) #0 comdat align 2 {
entry:
  %this.addr = alloca ptr, align 8
  store ptr %this, ptr %this.addr, align 8
  %this1 = load ptr, ptr %this.addr, align 8
  %_M_t = getelementptr inbounds %"class.std::__uniq_ptr_impl", ptr %this1, i32 0, i32 0
  %call = call noundef nonnull align 1 dereferenceable(1) ptr @_ZSt3getILm1EJPN4llvh12MemoryBufferESt14default_deleteIS1_EEERNSt13tuple_elementIXT_ESt5tupleIJDpT0_EEE4typeERS9_(ptr noundef nonnull align 8 dereferenceable(8) %_M_t) #11
  ret ptr %call
}

; Function Attrs: mustprogress nounwind uwtable
define linkonce_odr hidden noundef nonnull align 8 dereferenceable(8) ptr @_ZSt3getILm0EJPN4llvh12MemoryBufferESt14default_deleteIS1_EEERNSt13tuple_elementIXT_ESt5tupleIJDpT0_EEE4typeERS9_(ptr noundef nonnull align 8 dereferenceable(8) %__t) #0 comdat {
entry:
  %__t.addr = alloca ptr, align 8
  store ptr %__t, ptr %__t.addr, align 8
  %0 = load ptr, ptr %__t.addr, align 8
  %call = call noundef nonnull align 8 dereferenceable(8) ptr @_ZSt12__get_helperILm0EPN4llvh12MemoryBufferEJSt14default_deleteIS1_EEERT0_RSt11_Tuple_implIXT_EJS5_DpT1_EE(ptr noundef nonnull align 8 dereferenceable(8) %0) #11
  ret ptr %call
}

; Function Attrs: mustprogress nounwind uwtable
define linkonce_odr hidden void @_ZNKSt14default_deleteIN4llvh12MemoryBufferEEclEPS1_(ptr noundef nonnull align 1 dereferenceable(1) %this, ptr noundef %__ptr) #0 comdat align 2 {
entry:
  %this.addr = alloca ptr, align 8
  %__ptr.addr = alloca ptr, align 8
  store ptr %this, ptr %this.addr, align 8
  store ptr %__ptr, ptr %__ptr.addr, align 8
  %0 = load ptr, ptr %__ptr.addr, align 8
  %isnull = icmp eq ptr %0, null
  br i1 %isnull, label %delete.end, label %delete.notnull

delete.notnull:                                   ; preds = %entry
  %vtable = load ptr, ptr %0, align 8
  %vfn = getelementptr inbounds ptr, ptr %vtable, i64 1
  %1 = load ptr, ptr %vfn, align 8
  call void %1(ptr noundef nonnull align 8 dereferenceable(24) %0) #11
  br label %delete.end

delete.end:                                       ; preds = %delete.notnull, %entry
  ret void
}

; Function Attrs: mustprogress nounwind uwtable
define linkonce_odr hidden noundef nonnull align 1 dereferenceable(1) ptr @_ZNSt10unique_ptrIN4llvh12MemoryBufferESt14default_deleteIS1_EE11get_deleterEv(ptr noundef nonnull align 8 dereferenceable(8) %this) #0 comdat align 2 {
entry:
  %this.addr = alloca ptr, align 8
  store ptr %this, ptr %this.addr, align 8
  %this1 = load ptr, ptr %this.addr, align 8
  %_M_t = getelementptr inbounds %"class.std::unique_ptr", ptr %this1, i32 0, i32 0
  %call = call noundef nonnull align 1 dereferenceable(1) ptr @_ZNSt15__uniq_ptr_implIN4llvh12MemoryBufferESt14default_deleteIS1_EE10_M_deleterEv(ptr noundef nonnull align 8 dereferenceable(8) %_M_t) #11
  ret ptr %call
}

; Function Attrs: mustprogress nounwind uwtable
define linkonce_odr hidden noundef nonnull align 8 dereferenceable(8) ptr @_ZNSt15__uniq_ptr_implIN4llvh12MemoryBufferESt14default_deleteIS1_EE6_M_ptrEv(ptr noundef nonnull align 8 dereferenceable(8) %this) #0 comdat align 2 {
entry:
  %this.addr = alloca ptr, align 8
  store ptr %this, ptr %this.addr, align 8
  %this1 = load ptr, ptr %this.addr, align 8
  %_M_t = getelementptr inbounds %"class.std::__uniq_ptr_impl", ptr %this1, i32 0, i32 0
  %call = call noundef nonnull align 8 dereferenceable(8) ptr @_ZSt3getILm0EJPN4llvh12MemoryBufferESt14default_deleteIS1_EEERNSt13tuple_elementIXT_ESt5tupleIJDpT0_EEE4typeERS9_(ptr noundef nonnull align 8 dereferenceable(8) %_M_t) #11
  ret ptr %call
}

; Function Attrs: mustprogress nounwind uwtable
define linkonce_odr hidden void @_ZNSt10unique_ptrIN4llvh12MemoryBufferESt14default_deleteIS1_EED2Ev(ptr noundef nonnull align 8 dereferenceable(8) %this) unnamed_addr #0 comdat align 2 {
entry:
  %this.addr = alloca ptr, align 8
  %__ptr = alloca ptr, align 8
  store ptr %this, ptr %this.addr, align 8
  %this1 = load ptr, ptr %this.addr, align 8
  %_M_t = getelementptr inbounds %"class.std::unique_ptr", ptr %this1, i32 0, i32 0
  %call = call noundef nonnull align 8 dereferenceable(8) ptr @_ZNSt15__uniq_ptr_implIN4llvh12MemoryBufferESt14default_deleteIS1_EE6_M_ptrEv(ptr noundef nonnull align 8 dereferenceable(8) %_M_t) #11
  store ptr %call, ptr %__ptr, align 8
  %0 = load ptr, ptr %__ptr, align 8
  %1 = load ptr, ptr %0, align 8
  %cmp = icmp ne ptr %1, null
  br i1 %cmp, label %if.then, label %if.end

if.then:                                          ; preds = %entry
  %call2 = call noundef nonnull align 1 dereferenceable(1) ptr @_ZNSt10unique_ptrIN4llvh12MemoryBufferESt14default_deleteIS1_EE11get_deleterEv(ptr noundef nonnull align 8 dereferenceable(8) %this1) #11
  %2 = load ptr, ptr %__ptr, align 8
  %3 = load ptr, ptr %2, align 8
  call void @_ZNKSt14default_deleteIN4llvh12MemoryBufferEEclEPS1_(ptr noundef nonnull align 1 dereferenceable(1) %call2, ptr noundef %3)
  br label %if.end

if.end:                                           ; preds = %if.then, %entry
  %4 = load ptr, ptr %__ptr, align 8
  store ptr null, ptr %4, align 8
  ret void
}

; Function Attrs: mustprogress nounwind uwtable
define linkonce_odr hidden noundef ptr @_ZN4llvh7ErrorOrISt10unique_ptrINS_12MemoryBufferESt14default_deleteIS2_EEE10getStorageEv(ptr noundef nonnull align 8 dereferenceable(17) %this) #0 comdat align 2 {
entry:
  %this.addr = alloca ptr, align 8
  store ptr %this, ptr %this.addr, align 8
  %this1 = load ptr, ptr %this.addr, align 8
  %0 = getelementptr inbounds %"class.llvh::ErrorOr.12", ptr %this1, i32 0, i32 0
  %buffer = getelementptr inbounds %"struct.llvh::AlignedCharArray", ptr %0, i32 0, i32 0
  %arraydecay = getelementptr inbounds [8 x i8], ptr %buffer, i64 0, i64 0
  ret ptr %arraydecay
}

; Function Attrs: mustprogress nounwind uwtable
define linkonce_odr hidden noundef ptr @_ZN4llvh7ErrorOrISt10unique_ptrINS_12MemoryBufferESt14default_deleteIS2_EEE15getErrorStorageEv(ptr noundef nonnull align 8 dereferenceable(17) %this) #0 comdat align 2 {
entry:
  %this.addr = alloca ptr, align 8
  store ptr %this, ptr %this.addr, align 8
  %this1 = load ptr, ptr %this.addr, align 8
  %0 = getelementptr inbounds %"class.llvh::ErrorOr.12", ptr %this1, i32 0, i32 0
  %buffer = getelementptr inbounds %"struct.llvh::AlignedCharArray.3", ptr %0, i32 0, i32 0
  %arraydecay = getelementptr inbounds [16 x i8], ptr %buffer, i64 0, i64 0
  ret ptr %arraydecay
}

; Function Attrs: mustprogress nounwind uwtable
define linkonce_odr hidden void @_ZN4llvh7ErrorOrISt10unique_ptrINS_12MemoryBufferESt14default_deleteIS2_EEED2Ev(ptr noundef nonnull align 8 dereferenceable(17) %this) unnamed_addr #0 comdat align 2 {
entry:
  %this.addr = alloca ptr, align 8
  store ptr %this, ptr %this.addr, align 8
  %this1 = load ptr, ptr %this.addr, align 8
  %HasError = getelementptr inbounds %"class.llvh::ErrorOr.12", ptr %this1, i32 0, i32 1
  %bf.load = load i8, ptr %HasError, align 8
  %bf.clear = and i8 %bf.load, 1
  %bf.cast = trunc i8 %bf.clear to i1
  br i1 %bf.cast, label %if.end, label %if.then

if.then:                                          ; preds = %entry
  %call = call noundef ptr @_ZN4llvh7ErrorOrISt10unique_ptrINS_12MemoryBufferESt14default_deleteIS2_EEE10getStorageEv(ptr noundef nonnull align 8 dereferenceable(17) %this1)
  call void @_ZNSt10unique_ptrIN4llvh12MemoryBufferESt14default_deleteIS1_EED2Ev(ptr noundef nonnull align 8 dereferenceable(8) %call) #11
  br label %if.end

if.end:                                           ; preds = %if.then, %entry
  ret void
}

; Function Attrs: mustprogress nounwind uwtable
define linkonce_odr hidden void @_ZN4llvh7ErrorOrISt10unique_ptrINS_12MemoryBufferESt14default_deleteIS2_EEEC2ESt10error_code(ptr noundef nonnull align 8 dereferenceable(17) %this, i32 %EC.coerce0, ptr %EC.coerce1) unnamed_addr #0 comdat align 2 {
entry:
  %EC = alloca %"class.std::error_code", align 8
  %this.addr = alloca ptr, align 8
  %0 = getelementptr inbounds { i32, ptr }, ptr %EC, i32 0, i32 0
  store i32 %EC.coerce0, ptr %0, align 8
  %1 = getelementptr inbounds { i32, ptr }, ptr %EC, i32 0, i32 1
  store ptr %EC.coerce1, ptr %1, align 8
  store ptr %this, ptr %this.addr, align 8
  %this1 = load ptr, ptr %this.addr, align 8
  %HasError = getelementptr inbounds %"class.llvh::ErrorOr.12", ptr %this1, i32 0, i32 1
  %bf.load = load i8, ptr %HasError, align 8
  %bf.clear = and i8 %bf.load, -2
  %bf.set = or i8 %bf.clear, 1
  store i8 %bf.set, ptr %HasError, align 8
  %call = call noundef ptr @_ZN4llvh7ErrorOrISt10unique_ptrINS_12MemoryBufferESt14default_deleteIS2_EEE15getErrorStorageEv(ptr noundef nonnull align 8 dereferenceable(17) %this1)
  call void @llvm.memcpy.p0.p0.i64(ptr align 8 %call, ptr align 8 %EC, i64 16, i1 false)
  ret void
}

; Function Attrs: mustprogress nounwind uwtable
define linkonce_odr noundef zeroext i1 @_ZNKSt10error_codecvbEv(ptr noundef nonnull align 8 dereferenceable(16) %this) #0 comdat align 2 {
entry:
  %this.addr = alloca ptr, align 8
  store ptr %this, ptr %this.addr, align 8
  %this1 = load ptr, ptr %this.addr, align 8
  %_M_value = getelementptr inbounds %"class.std::error_code", ptr %this1, i32 0, i32 0
  %0 = load i32, ptr %_M_value, align 8
  %cmp = icmp ne i32 %0, 0
  ret i1 %cmp
}

; Function Attrs: mustprogress nounwind uwtable
define internal void @_ZL10getFileAuxIN4llvh12MemoryBufferEENS0_7ErrorOrISt10unique_ptrIT_St14default_deleteIS4_EEEERKNS0_5TwineElmmbb(ptr noalias sret(%"class.llvh::ErrorOr.12") align 8 %agg.result, ptr noundef nonnull align 8 dereferenceable(18) %Filename, i64 noundef %FileSize, i64 noundef %MapSize, i64 noundef %Offset, i1 noundef zeroext %RequiresNullTerminator, i1 noundef zeroext %IsVolatile) #0 {
entry:
  %result.ptr = alloca ptr, align 8
  %Filename.addr = alloca ptr, align 8
  %FileSize.addr = alloca i64, align 8
  %MapSize.addr = alloca i64, align 8
  %Offset.addr = alloca i64, align 8
  %RequiresNullTerminator.addr = alloca i8, align 1
  %IsVolatile.addr = alloca i8, align 1
  %FD = alloca i32, align 4
  %EC = alloca %"class.std::error_code", align 8
  %agg.tmp = alloca %"class.std::error_code", align 8
  %nrvo = alloca i1, align 1
  store ptr %agg.result, ptr %result.ptr, align 8
  store ptr %Filename, ptr %Filename.addr, align 8
  store i64 %FileSize, ptr %FileSize.addr, align 8
  store i64 %MapSize, ptr %MapSize.addr, align 8
  store i64 %Offset, ptr %Offset.addr, align 8
  %frombool = zext i1 %RequiresNullTerminator to i8
  store i8 %frombool, ptr %RequiresNullTerminator.addr, align 1
  %frombool1 = zext i1 %IsVolatile to i8
  store i8 %frombool1, ptr %IsVolatile.addr, align 1
  %0 = load ptr, ptr %Filename.addr, align 8
  %call = call { i32, ptr } @_ZN4llvh3sys2fs15openFileForReadERKNS_5TwineERiNS1_9OpenFlagsEPNS_15SmallVectorImplIcEE(ptr noundef nonnull align 8 dereferenceable(18) %0, ptr noundef nonnull align 4 dereferenceable(4) %FD, i32 noundef 0, ptr noundef null)
  %1 = getelementptr inbounds { i32, ptr }, ptr %EC, i32 0, i32 0
  %2 = extractvalue { i32, ptr } %call, 0
  store i32 %2, ptr %1, align 8
  %3 = getelementptr inbounds { i32, ptr }, ptr %EC, i32 0, i32 1
  %4 = extractvalue { i32, ptr } %call, 1
  store ptr %4, ptr %3, align 8
  %call2 = call noundef zeroext i1 @_ZNKSt10error_codecvbEv(ptr noundef nonnull align 8 dereferenceable(16) %EC) #11
  br i1 %call2, label %if.then, label %if.end

if.then:                                          ; preds = %entry
  call void @llvm.memcpy.p0.p0.i64(ptr align 8 %agg.tmp, ptr align 8 %EC, i64 16, i1 false)
  %5 = getelementptr inbounds { i32, ptr }, ptr %agg.tmp, i32 0, i32 0
  %6 = load i32, ptr %5, align 8
  %7 = getelementptr inbounds { i32, ptr }, ptr %agg.tmp, i32 0, i32 1
  %8 = load ptr, ptr %7, align 8
  call void @_ZN4llvh7ErrorOrISt10unique_ptrINS_12MemoryBufferESt14default_deleteIS2_EEEC2ESt10error_code(ptr noundef nonnull align 8 dereferenceable(17) %agg.result, i32 %6, ptr %8)
  br label %return

if.end:                                           ; preds = %entry
  store i1 false, ptr %nrvo, align 1
  %9 = load i32, ptr %FD, align 4
  %10 = load ptr, ptr %Filename.addr, align 8
  %11 = load i64, ptr %FileSize.addr, align 8
  %12 = load i64, ptr %MapSize.addr, align 8
  %13 = load i64, ptr %Offset.addr, align 8
  %14 = load i8, ptr %RequiresNullTerminator.addr, align 1
  %tobool = trunc i8 %14 to i1
  %15 = load i8, ptr %IsVolatile.addr, align 1
  %tobool3 = trunc i8 %15 to i1
  call void @_ZL15getOpenFileImplIN4llvh12MemoryBufferEENS0_7ErrorOrISt10unique_ptrIT_St14default_deleteIS4_EEEEiRKNS0_5TwineEmmlbb(ptr sret(%"class.llvh::ErrorOr.12") align 8 %agg.result, i32 noundef %9, ptr noundef nonnull align 8 dereferenceable(18) %10, i64 noundef %11, i64 noundef %12, i64 noundef %13, i1 noundef zeroext %tobool, i1 noundef zeroext %tobool3)
  %16 = load i32, ptr %FD, align 4
  %call4 = call i32 @close(i32 noundef %16)
  store i1 true, ptr %nrvo, align 1
  %nrvo.val = load i1, ptr %nrvo, align 1
  br i1 %nrvo.val, label %nrvo.skipdtor, label %nrvo.unused

nrvo.unused:                                      ; preds = %if.end
  call void @_ZN4llvh7ErrorOrISt10unique_ptrINS_12MemoryBufferESt14default_deleteIS2_EEED2Ev(ptr noundef nonnull align 8 dereferenceable(17) %agg.result) #11
  br label %nrvo.skipdtor

nrvo.skipdtor:                                    ; preds = %nrvo.unused, %if.end
  br label %return

return:                                           ; preds = %nrvo.skipdtor, %if.then
  ret void
}

; Function Attrs: mustprogress nounwind uwtable
define hidden void @_ZN4llvh12MemoryBuffer7getFileERKNS_5TwineElbb(ptr noalias sret(%"class.llvh::ErrorOr.12") align 8 %agg.result, ptr noundef nonnull align 8 dereferenceable(18) %Filename, i64 noundef %FileSize, i1 noundef zeroext %RequiresNullTerminator, i1 noundef zeroext %IsVolatile) #0 align 2 {
entry:
  %result.ptr = alloca ptr, align 8
  %Filename.addr = alloca ptr, align 8
  %FileSize.addr = alloca i64, align 8
  %RequiresNullTerminator.addr = alloca i8, align 1
  %IsVolatile.addr = alloca i8, align 1
  store ptr %agg.result, ptr %result.ptr, align 8
  store ptr %Filename, ptr %Filename.addr, align 8
  store i64 %FileSize, ptr %FileSize.addr, align 8
  %frombool = zext i1 %RequiresNullTerminator to i8
  store i8 %frombool, ptr %RequiresNullTerminator.addr, align 1
  %frombool1 = zext i1 %IsVolatile to i8
  store i8 %frombool1, ptr %IsVolatile.addr, align 1
  %0 = load ptr, ptr %Filename.addr, align 8
  %1 = load i64, ptr %FileSize.addr, align 8
  %2 = load i64, ptr %FileSize.addr, align 8
  %3 = load i8, ptr %RequiresNullTerminator.addr, align 1
  %tobool = trunc i8 %3 to i1
  %4 = load i8, ptr %IsVolatile.addr, align 1
  %tobool2 = trunc i8 %4 to i1
  call void @_ZL10getFileAuxIN4llvh12MemoryBufferEENS0_7ErrorOrISt10unique_ptrIT_St14default_deleteIS4_EEEERKNS0_5TwineElmmbb(ptr sret(%"class.llvh::ErrorOr.12") align 8 %agg.result, ptr noundef nonnull align 8 dereferenceable(18) %0, i64 noundef %1, i64 noundef %2, i64 noundef 0, i1 noundef zeroext %tobool, i1 noundef zeroext %tobool2)
  ret void
}